Certificate:
    Data:
        Version: 3 (0x2)
        Serial Number: 0 (0x0)
    Signature Algorithm: sha256WithRSAEncryption
        Issuer: C=LL, ST=LL, L=LL, O=LL, OU=LL, CN=LL/emailAddress=LL
        Validity
            Not Before: Sep  8 09:58:01 2022 GMT
            Not After : Sep  8 09:58:01 2023 GMT
        Subject: C=LL, ST=LL, O=LL, OU=LL, CN=jhdcp.monitor/emailAddress=LL
        Subject Public Key Info:
            Public Key Algorithm: rsaEncryption
                Public-Key: (2048 bit)
                Modulus:
                    00:ac:d8:4d:6b:61:2b:90:f7:18:8b:b2:77:18:dc:
                    fd:94:61:57:87:69:d8:3f:9b:82:5a:30:17:1c:0c:
                    d6:e1:df:15:ec:cf:7d:81:ae:76:fb:84:36:c8:81:
                    41:cd:1c:87:55:fe:bb:d8:7b:f5:56:bd:b6:a0:60:
                    46:63:dc:f1:ca:c5:2f:f3:91:a4:65:16:a9:09:1e:
                    4e:1d:b3:5f:6f:83:77:b1:16:0b:e1:c5:84:21:c7:
                    17:ae:a9:0d:bf:92:f9:e5:6d:e2:2c:ce:9a:25:f3:
                    a7:5d:4d:8b:32:83:f7:fc:53:f1:86:c4:a0:b4:53:
                    9e:8b:5b:1e:f6:a1:e4:3b:42:53:38:48:1d:82:cc:
                    33:23:0a:0f:e1:47:f3:e5:21:44:41:15:a1:3f:ff:
                    f3:76:e5:aa:a7:49:8e:7a:cd:c1:db:5a:6a:c9:05:
                    6b:3b:4a:ad:9c:c0:ca:64:b4:50:5c:1b:42:f4:4d:
                    5f:50:1a:9c:1e:9b:d3:75:c7:ef:a5:04:f3:54:1c:
                    61:e4:57:49:75:82:aa:b8:32:51:98:dc:67:7f:34:
                    d5:33:c0:0e:f4:cf:39:75:f6:7e:a9:54:06:e1:a0:
                    64:6e:54:ab:a8:f4:65:1f:a2:dc:77:7d:13:1e:c7:
                    ad:1f:8f:a1:54:bb:2e:8e:59:ae:c5:91:d0:75:d7:
                    d2:77
                Exponent: 65537 (0x10001)
        X509v3 extensions:
            X509v3 Basic Constraints: 
                CA:FALSE
            X509v3 Key Usage: 
                Digital Signature, Non Repudiation, Key Encipherment
            X509v3 Subject Alternative Name: 
                DNS:jhdcp.monitor
    Signature Algorithm: sha256WithRSAEncryption
         a9:7d:55:b8:03:d1:ad:af:22:54:2f:75:22:8d:2a:23:6e:70:
         7b:f5:e5:46:fb:7f:b7:db:7d:98:f2:6c:63:a1:39:f3:5d:6d:
         82:52:3f:ac:2d:05:93:12:b2:93:a8:d5:31:ca:be:bb:a6:33:
         e5:89:99:05:8b:93:85:fe:b4:5b:0e:f8:b0:40:7b:d2:2b:93:
         27:6c:c8:2f:ad:05:a1:37:3c:47:a5:92:8c:19:f7:af:e0:4c:
         d3:67:a9:e5:6c:a5:92:a9:1a:27:b8:db:41:2b:62:d2:88:5d:
         66:40:da:6f:90:e4:0d:74:e3:e4:0c:1c:f5:6a:50:c9:ee:56:
         d3:23:00:e9:42:2e:ac:0c:de:a3:4c:99:7d:d0:73:76:56:2b:
         a4:ca:0f:02:f2:d0:1d:d3:da:a2:c5:1a:8a:6b:50:42:96:28:
         d0:3f:4d:c8:c2:01:c9:ba:13:14:d4:aa:11:a8:9e:63:89:36:
         93:7c:f8:95:c9:a9:58:bb:b0:dc:ba:e5:fa:37:ce:25:2d:f3:
         13:c3:44:61:cd:fb:3b:38:8a:dc:90:1b:a7:78:b2:e3:5c:d2:
         9a:67:aa:68:7e:1a:3f:f5:f2:63:a0:16:15:3e:95:4b:12:ca:
         db:b5:da:ab:21:7f:61:b8:db:f7:dc:70:c2:81:27:d8:36:13:
         52:11:14:32
-----BEGIN CERTIFICATE-----
MIIDbzCCAlegAwIBAgIBADANBgkqhkiG9w0BAQsFADBhMQswCQYDVQQGEwJMTDEL
MAkGA1UECAwCTEwxCzAJBgNVBAcMAkxMMQswCQYDVQQKDAJMTDELMAkGA1UECwwC
TEwxCzAJBgNVBAMMAkxMMREwDwYJKoZIhvcNAQkBFgJMTDAeFw0yMjA5MDgwOTU4
MDFaFw0yMzA5MDgwOTU4MDFaMF8xCzAJBgNVBAYTAkxMMQswCQYDVQQIDAJMTDEL
MAkGA1UECgwCTEwxCzAJBgNVBAsMAkxMMRYwFAYDVQQDDA1qaGRjcC5tb25pdG9y
MREwDwYJKoZIhvcNAQkBFgJMTDCCASIwDQYJKoZIhvcNAQEBBQADggEPADCCAQoC
ggEBAKzYTWthK5D3GIuydxjc/ZRhV4dp2D+bglowFxwM1uHfFezPfYGudvuENsiB
Qc0ch1X+u9h79Va9tqBgRmPc8crFL/ORpGUWqQkeTh2zX2+Dd7EWC+HFhCHHF66p
Db+S+eVt4izOmiXzp11NizKD9/xT8YbEoLRTnotbHvah5DtCUzhIHYLMMyMKD+FH
8+UhREEVoT//83blqqdJjnrNwdtaaskFaztKrZzAymS0UFwbQvRNX1AanB6b03XH
76UE81QcYeRXSXWCqrgyUZjcZ3801TPADvTPOXX2fqlUBuGgZG5Uq6j0ZR+i3Hd9
Ex7HrR+PoVS7Lo5ZrsWR0HXX0ncCAwEAAaM0MDIwCQYDVR0TBAIwADALBgNVHQ8E
BAMCBeAwGAYDVR0RBBEwD4INamhkY3AubW9uaXRvcjANBgkqhkiG9w0BAQsFAAOC
AQEAqX1VuAPRra8iVC91Io0qI25we/XlRvt/t9t9mPJsY6E5811tglI/rC0FkxKy
k6jVMcq+u6Yz5YmZBYuThf60Ww74sEB70iuTJ2zIL60FoTc8R6WSjBn3r+BM02ep
5WylkqkaJ7jbQSti0ohdZkDab5DkDXTj5Awc9WpQye5W0yMA6UIurAzeo0yZfdBz
dlYrpMoPAvLQHdPaosUaimtQQpYo0D9NyMIByboTFNSqEaieY4k2k3z4lcmpWLuw
3Lrl+jfOJS3zE8NEYc37OziK3JAbp3iy41zSmmeqaH4aP/XyY6AWFT6VSxLK27Xa
qyF/Ybjb99xwwoEn2DYTUhEUMg==
-----END CERTIFICATE-----
